target datalayout = "e-m:e-p270:32:32-p271:32:32-p272:64:64-i64:64-i128:128-f80:128-n8:16:32:64-S128"
target triple = "x86_64-unknown-linux-gnu"

%"struct.llvh::fltSemantics" = type { i16, i16, i32, i32 }
%"class.llvh::detail::IEEEFloat" = type <{ ptr, %"union.llvh::detail::IEEEFloat::Significand", i16, i8, [5 x i8] }>
%"union.llvh::detail::IEEEFloat::Significand" = type { i64 }

; Function Attrs: mustprogress nounwind uwtable
define internal noundef i32 @_ZN4llvhL16partCountForBitsEj(i32 noundef %bits) #1 {
entry:
  %bits.addr = alloca i32, align 4
  store i32 %bits, ptr %bits.addr, align 4
  %0 = load i32, ptr %bits.addr, align 4
  %add = add i32 %0, 64
  %sub = sub i32 %add, 1
  %div = udiv i32 %sub, 64
  ret i32 %div
}

; Function Attrs: mustprogress nounwind uwtable
define hidden noundef i32 @_ZNK4llvh6detail9IEEEFloat9partCountEv(ptr noundef nonnull align 8 dereferenceable(24) %this) #1 align 2 {
entry:
  %this.addr = alloca ptr, align 8
  store ptr %this, ptr %this.addr, align 8
  %this1 = load ptr, ptr %this.addr, align 8
  %semantics = getelementptr inbounds %"class.llvh::detail::IEEEFloat", ptr %this1, i32 0, i32 0
  %0 = load ptr, ptr %semantics, align 8
  %precision = getelementptr inbounds %"struct.llvh::fltSemantics", ptr %0, i32 0, i32 2
  %1 = load i32, ptr %precision, align 4
  %add = add i32 %1, 1
  %call = call noundef i32 @_ZN4llvhL16partCountForBitsEj(i32 noundef %add)
  ret i32 %call
}

; Function Attrs: mustprogress nounwind uwtable
define hidden noundef ptr @_ZN4llvh6detail9IEEEFloat16significandPartsEv(ptr noundef nonnull align 8 dereferenceable(24) %this) #1 align 2 {
entry:
  %retval = alloca ptr, align 8
  %this.addr = alloca ptr, align 8
  store ptr %this, ptr %this.addr, align 8
  %this1 = load ptr, ptr %this.addr, align 8
  %call = call noundef i32 @_ZNK4llvh6detail9IEEEFloat9partCountEv(ptr noundef nonnull align 8 dereferenceable(24) %this1)
  %cmp = icmp ugt i32 %call, 1
  br i1 %cmp, label %if.then, label %if.else

if.then:                                          ; preds = %entry
  %significand = getelementptr inbounds %"class.llvh::detail::IEEEFloat", ptr %this1, i32 0, i32 1
  %0 = load ptr, ptr %significand, align 8
  store ptr %0, ptr %retval, align 8
  br label %return

if.else:                                          ; preds = %entry
  %significand2 = getelementptr inbounds %"class.llvh::detail::IEEEFloat", ptr %this1, i32 0, i32 1
  store ptr %significand2, ptr %retval, align 8
  br label %return

return:                                           ; preds = %if.else, %if.then
  %1 = load ptr, ptr %retval, align 8
  ret ptr %1
}

; Function Attrs: mustprogress nounwind uwtable
define hidden noundef i32 @_ZN4llvh6detail9IEEEFloat14handleOverflowENS_11APFloatBase12roundingModeE(ptr noundef nonnull align 8 dereferenceable(24) %this, i32 noundef %rounding_mode) #1 align 2 {
entry:
  %retval = alloca i32, align 4
  %this.addr = alloca ptr, align 8
  %rounding_mode.addr = alloca i32, align 4
  store ptr %this, ptr %this.addr, align 8
  store i32 %rounding_mode, ptr %rounding_mode.addr, align 4
  %this1 = load ptr, ptr %this.addr, align 8
  %0 = load i32, ptr %rounding_mode.addr, align 4
  %cmp = icmp eq i32 %0, 0
  br i1 %cmp, label %if.then, label %lor.lhs.false

lor.lhs.false:                                    ; preds = %entry
  %1 = load i32, ptr %rounding_mode.addr, align 4
  %cmp2 = icmp eq i32 %1, 4
  br i1 %cmp2, label %if.then, label %lor.lhs.false3

lor.lhs.false3:                                   ; preds = %lor.lhs.false
  %2 = load i32, ptr %rounding_mode.addr, align 4
  %cmp4 = icmp eq i32 %2, 1
  br i1 %cmp4, label %land.lhs.true, label %lor.lhs.false5

land.lhs.true:                                    ; preds = %lor.lhs.false3
  %sign = getelementptr inbounds %"class.llvh::detail::IEEEFloat", ptr %this1, i32 0, i32 3
  %bf.load = load i8, ptr %sign, align 2
  %bf.lshr = lshr i8 %bf.load, 3
  %bf.clear = and i8 %bf.lshr, 1
  %bf.cast = zext i8 %bf.clear to i32
  %tobool = icmp ne i32 %bf.cast, 0
  br i1 %tobool, label %lor.lhs.false5, label %if.then

lor.lhs.false5:                                   ; preds = %land.lhs.true, %lor.lhs.false3
  %3 = load i32, ptr %rounding_mode.addr, align 4
  %cmp6 = icmp eq i32 %3, 2
  br i1 %cmp6, label %land.lhs.true7, label %if.end

land.lhs.true7:                                   ; preds = %lor.lhs.false5
  %sign8 = getelementptr inbounds %"class.llvh::detail::IEEEFloat", ptr %this1, i32 0, i32 3
  %bf.load9 = load i8, ptr %sign8, align 2
  %bf.lshr10 = lshr i8 %bf.load9, 3
  %bf.clear11 = and i8 %bf.lshr10, 1
  %bf.cast12 = zext i8 %bf.clear11 to i32
  %tobool13 = icmp ne i32 %bf.cast12, 0
  br i1 %tobool13, label %if.then, label %if.end

if.then:                                          ; preds = %land.lhs.true7, %land.lhs.true, %lor.lhs.false, %entry
  %category = getelementptr inbounds %"class.llvh::detail::IEEEFloat", ptr %this1, i32 0, i32 3
  %bf.load14 = load i8, ptr %category, align 2
  %bf.clear15 = and i8 %bf.load14, -8
  %bf.set = or i8 %bf.clear15, 0
  store i8 %bf.set, ptr %category, align 2
  store i32 20, ptr %retval, align 4
  br label %return

if.end:                                           ; preds = %land.lhs.true7, %lor.lhs.false5
  %category16 = getelementptr inbounds %"class.llvh::detail::IEEEFloat", ptr %this1, i32 0, i32 3
  %bf.load17 = load i8, ptr %category16, align 2
  %bf.clear18 = and i8 %bf.load17, -8
  %bf.set19 = or i8 %bf.clear18, 2
  store i8 %bf.set19, ptr %category16, align 2
  %semantics = getelementptr inbounds %"class.llvh::detail::IEEEFloat", ptr %this1, i32 0, i32 0
  %4 = load ptr, ptr %semantics, align 8
  %maxExponent = getelementptr inbounds %"struct.llvh::fltSemantics", ptr %4, i32 0, i32 0
  %5 = load i16, ptr %maxExponent, align 4
  %exponent = getelementptr inbounds %"class.llvh::detail::IEEEFloat", ptr %this1, i32 0, i32 2
  store i16 %5, ptr %exponent, align 8
  %call = call noundef ptr @_ZN4llvh6detail9IEEEFloat16significandPartsEv(ptr noundef nonnull align 8 dereferenceable(24) %this1)
  %call20 = call noundef i32 @_ZNK4llvh6detail9IEEEFloat9partCountEv(ptr noundef nonnull align 8 dereferenceable(24) %this1)
  %semantics21 = getelementptr inbounds %"class.llvh::detail::IEEEFloat", ptr %this1, i32 0, i32 0
  %6 = load ptr, ptr %semantics21, align 8
  %precision = getelementptr inbounds %"struct.llvh::fltSemantics", ptr %6, i32 0, i32 2
  %7 = load i32, ptr %precision, align 4
  call void @_ZN4llvh5APInt25tcSetLeastSignificantBitsEPmjj(ptr noundef %call, i32 noundef %call20, i32 noundef %7)
  store i32 16, ptr %retval, align 4
  br label %return

return:                                           ; preds = %if.end, %if.then
  %8 = load i32, ptr %retval, align 4
  ret i32 %8
}