; Function Attrs: mustprogress nounwind uwtable
define hidden noundef range(i32 16, 21) i32 @_ZN4llvh6detail9IEEEFloat14handleOverflowENS_11APFloatBase12roundingModeE(ptr noundef nonnull align 8 dereferenceable(24) %this, i32 noundef %rounding_mode) local_unnamed_addr #2 align 2 {
entry:
  %0 = and i32 %rounding_mode, -5
  %or.cond = icmp eq i32 %0, 0
  %category.phi.trans.insert = getelementptr inbounds nuw i8, ptr %this, i64 18
  %bf.load14.pre = load i8, ptr %category.phi.trans.insert, align 2
  br i1 %or.cond, label %if.then, label %lor.lhs.false3

lor.lhs.false3:                                   ; preds = %entry
  switch i32 %rounding_mode, label %if.end [
    i32 1, label %land.lhs.true
    i32 2, label %land.lhs.true7
  ]

land.lhs.true:                                    ; preds = %lor.lhs.false3
  %1 = and i8 %bf.load14.pre, 8
  %tobool.not = icmp eq i8 %1, 0
  br i1 %tobool.not, label %if.then, label %if.end

land.lhs.true7:                                   ; preds = %lor.lhs.false3
  %2 = and i8 %bf.load14.pre, 8
  %tobool13.not = icmp eq i8 %2, 0
  br i1 %tobool13.not, label %if.end, label %if.then

if.then:                                          ; preds = %entry, %land.lhs.true7, %land.lhs.true
  %category = getelementptr inbounds nuw i8, ptr %this, i64 18
  %bf.clear15 = and i8 %bf.load14.pre, -8
  store i8 %bf.clear15, ptr %category, align 2
  br label %return

if.end:                                           ; preds = %lor.lhs.false3, %land.lhs.true, %land.lhs.true7
  %category16 = getelementptr inbounds nuw i8, ptr %this, i64 18
  %bf.clear18 = and i8 %bf.load14.pre, -8
  %bf.set19 = or disjoint i8 %bf.clear18, 2
  store i8 %bf.set19, ptr %category16, align 2
  %3 = load ptr, ptr %this, align 8
  %4 = load i16, ptr %3, align 4
  %exponent = getelementptr inbounds nuw i8, ptr %this, i64 16
  store i16 %4, ptr %exponent, align 8
  %precision.i.i = getelementptr inbounds nuw i8, ptr %3, i64 4
  %5 = load i32, ptr %precision.i.i, align 4
  %6 = add i32 %5, -64
  %cmp.i = icmp ult i32 %6, -128
  %significand.i = getelementptr inbounds nuw i8, ptr %this, i64 8
  %7 = load ptr, ptr %significand.i, align 8
  %retval.0.i = select i1 %cmp.i, ptr %7, ptr %significand.i
  %sub.i.i = add i32 %5, 64
  %div1.i.i = lshr i32 %sub.i.i, 6
  tail call void @_ZN4llvh5APInt25tcSetLeastSignificantBitsEPmjj(ptr noundef %retval.0.i, i32 noundef %div1.i.i, i32 noundef %5) #26
  br label %return

return:                                           ; preds = %if.end, %if.then
  %retval.0 = phi i32 [ 20, %if.then ], [ 16, %if.end ]
  ret i32 %retval.0
}